target datalayout = "e-m:e-p270:32:32-p271:32:32-p272:64:64-i64:64-i128:128-f80:128-n8:16:32:64-S128"
target triple = "x86_64-unknown-linux-gnu"

%struct.ManagedDictionary = type { i32, %struct.MemoryManager, ptr }
%struct.MemoryManager = type { ptr, ptr, ptr }

; Function Attrs: nounwind uwtable
define hidden void @BrotliDestroyManagedDictionary(ptr noundef %dictionary) #0 {
entry:
  %dictionary.addr = alloca ptr, align 8
  store ptr %dictionary, ptr %dictionary.addr, align 8
  %0 = load ptr, ptr %dictionary.addr, align 8
  %tobool = icmp ne ptr %0, null
  br i1 %tobool, label %if.end, label %if.then

if.then:                                          ; preds = %entry
  br label %return

if.end:                                           ; preds = %entry
  %1 = load ptr, ptr %dictionary.addr, align 8
  %2 = load ptr, ptr %dictionary.addr, align 8
  %memory_manager_ = getelementptr inbounds %struct.ManagedDictionary, ptr %2, i32 0, i32 1
  call void @BrotliBootstrapFree(ptr noundef %1, ptr noundef %memory_manager_)
  br label %return

return:                                           ; preds = %if.end, %if.then
  ret void
}