; Function Attrs: nounwind uwtable
define hidden void @BrotliDestroyManagedDictionary(ptr noundef %dictionary) local_unnamed_addr #0 {
entry:
  %tobool.not = icmp eq ptr %dictionary, null
  br i1 %tobool.not, label %return, label %if.end

if.end:                                           ; preds = %entry
  %memory_manager_ = getelementptr inbounds nuw i8, ptr %dictionary, i64 8
  tail call void @BrotliBootstrapFree(ptr noundef nonnull %dictionary, ptr noundef nonnull %memory_manager_) #3
  br label %return

return:                                           ; preds = %entry, %if.end
  ret void
}